target datalayout = "e-m:e-p270:32:32-p271:32:32-p272:64:64-i64:64-i128:128-f80:128-n8:16:32:64-S128"
target triple = "x86_64-pc-linux-gnu"

%"struct.btConvexConvexAlgorithm::CreateFunc" = type { %struct.btCollisionAlgorithmCreateFunc.base, ptr, i32, i32 }
%struct.btCollisionAlgorithmCreateFunc.base = type <{ ptr, i8 }>
%struct.btCollisionAlgorithmCreateFunc = type <{ ptr, i8, [7 x i8] }>

; Function Attrs: mustprogress nounwind uwtable
define linkonce_odr dso_local void @_ZN30btCollisionAlgorithmCreateFuncC2Ev(ptr noundef nonnull align 8 dereferenceable(9) %0) unnamed_addr #1 comdat align 2 {
  %2 = alloca ptr, align 8
  store ptr %0, ptr %2, align 8, !tbaa !24
  %3 = load ptr, ptr %2, align 8
  store ptr getelementptr inbounds inrange(-16, 24) ({ [5 x ptr] }, ptr @_ZTV30btCollisionAlgorithmCreateFunc, i32 0, i32 0, i32 2), ptr %3, align 8, !tbaa !16
  %4 = getelementptr inbounds nuw %struct.btCollisionAlgorithmCreateFunc, ptr %3, i32 0, i32 1
  store i8 0, ptr %4, align 8, !tbaa !26
  ret void
}

; Function Attrs: mustprogress uwtable
define dso_local void @_ZN23btConvexConvexAlgorithm10CreateFuncC2EP30btConvexPenetrationDepthSolver(ptr noundef nonnull align 8 dereferenceable(32) %0, ptr noundef %1) unnamed_addr #2 align 2 {
  %3 = alloca ptr, align 8
  %4 = alloca ptr, align 8
  store ptr %0, ptr %3, align 8, !tbaa !12
  store ptr %1, ptr %4, align 8, !tbaa !14
  %5 = load ptr, ptr %3, align 8
  call void @_ZN30btCollisionAlgorithmCreateFuncC2Ev(ptr noundef nonnull align 8 dereferenceable(9) %5)
  store ptr getelementptr inbounds inrange(-16, 24) ({ [5 x ptr] }, ptr @_ZTVN23btConvexConvexAlgorithm10CreateFuncE, i32 0, i32 0, i32 2), ptr %5, align 8, !tbaa !16
  %6 = getelementptr inbounds nuw %"struct.btConvexConvexAlgorithm::CreateFunc", ptr %5, i32 0, i32 2
  store i32 0, ptr %6, align 8, !tbaa !18
  %7 = getelementptr inbounds nuw %"struct.btConvexConvexAlgorithm::CreateFunc", ptr %5, i32 0, i32 3
  store i32 3, ptr %7, align 4, !tbaa !22
  %8 = load ptr, ptr %4, align 8, !tbaa !14
  %9 = getelementptr inbounds nuw %"struct.btConvexConvexAlgorithm::CreateFunc", ptr %5, i32 0, i32 1
  store ptr %8, ptr %9, align 8, !tbaa !23
  ret void
}