; Function Attrs: mustprogress nofree norecurse nosync nounwind willreturn memory(argmem: write) uwtable
define dso_local void @_ZN23btConvexConvexAlgorithm10CreateFuncC2EP30btConvexPenetrationDepthSolver(ptr noundef nonnull writeonly align 8 captures(none) dereferenceable(32) initializes((0, 9), (16, 32)) %0, ptr noundef %1) unnamed_addr #0 align 2 {
  %3 = getelementptr inbounds nuw i8, ptr %0, i64 8
  store i8 0, ptr %3, align 8, !tbaa !4
  store ptr getelementptr inbounds nuw inrange(-16, 24) (i8, ptr @_ZTVN23btConvexConvexAlgorithm10CreateFuncE, i64 16), ptr %0, align 8, !tbaa !9
  %4 = getelementptr inbounds nuw i8, ptr %0, i64 24
  store i32 0, ptr %4, align 8, !tbaa !11
  %5 = getelementptr inbounds nuw i8, ptr %0, i64 28
  store i32 3, ptr %5, align 4, !tbaa !16
  %6 = getelementptr inbounds nuw i8, ptr %0, i64 16
  store ptr %1, ptr %6, align 8, !tbaa !17
  ret void
}